target datalayout = "e-m:e-p270:32:32-p271:32:32-p272:64:64-i64:64-i128:128-f80:128-n8:16:32:64-S128"
target triple = "x86_64-pc-linux-gnu"

%struct.ewah_bitmap = type { ptr, i64, i64, i64, ptr }
%struct.rlw_iterator = type { ptr, i64, i64, i64, %struct.anon }
%struct.anon = type { ptr, i32, i32, i32, i32 }

; Function Attrs: inlinehint nounwind uwtable
define internal i32 @rlw_get_run_bit(ptr noundef %0) #1 {
  %2 = alloca ptr, align 8
  store ptr %0, ptr %2, align 8, !tbaa !33
  %3 = load ptr, ptr %2, align 8, !tbaa !33
  %4 = load i64, ptr %3, align 8, !tbaa !28
  %5 = and i64 %4, 1
  %6 = trunc i64 %5 to i32
  ret i32 %6
}

; Function Attrs: inlinehint nounwind uwtable
define internal i64 @rlw_get_running_len(ptr noundef %0) #1 {
  %2 = alloca ptr, align 8
  store ptr %0, ptr %2, align 8, !tbaa !33
  %3 = load ptr, ptr %2, align 8, !tbaa !33
  %4 = load i64, ptr %3, align 8, !tbaa !28
  %5 = lshr i64 %4, 1
  %6 = and i64 %5, 4294967295
  ret i64 %6
}

; Function Attrs: inlinehint nounwind uwtable
define internal i64 @rlw_get_literal_words(ptr noundef %0) #1 {
  %2 = alloca ptr, align 8
  store ptr %0, ptr %2, align 8, !tbaa !33
  %3 = load ptr, ptr %2, align 8, !tbaa !33
  %4 = load i64, ptr %3, align 8, !tbaa !28
  %5 = lshr i64 %4, 33
  ret i64 %5
}

; Function Attrs: inlinehint nounwind uwtable
define internal i64 @rlwit_literal_words(ptr noundef %0) #1 {
  %2 = alloca ptr, align 8
  store ptr %0, ptr %2, align 8, !tbaa !4
  %3 = load ptr, ptr %2, align 8, !tbaa !4
  %4 = getelementptr inbounds nuw %struct.rlw_iterator, ptr %3, i32 0, i32 2
  %5 = load i64, ptr %4, align 8, !tbaa !21
  %6 = load ptr, ptr %2, align 8, !tbaa !4
  %7 = getelementptr inbounds nuw %struct.rlw_iterator, ptr %6, i32 0, i32 4
  %8 = getelementptr inbounds nuw %struct.anon, ptr %7, i32 0, i32 1
  %9 = load i32, ptr %8, align 8, !tbaa !25
  %10 = sext i32 %9 to i64
  %11 = sub i64 %5, %10
  ret i64 %11
}

; Function Attrs: inlinehint nounwind uwtable
define internal i32 @next_word(ptr noundef %0) #1 {
  %2 = alloca i32, align 4
  %3 = alloca ptr, align 8
  store ptr %0, ptr %3, align 8, !tbaa !4
  %4 = load ptr, ptr %3, align 8, !tbaa !4
  %5 = getelementptr inbounds nuw %struct.rlw_iterator, ptr %4, i32 0, i32 2
  %6 = load i64, ptr %5, align 8, !tbaa !21
  %7 = load ptr, ptr %3, align 8, !tbaa !4
  %8 = getelementptr inbounds nuw %struct.rlw_iterator, ptr %7, i32 0, i32 1
  %9 = load i64, ptr %8, align 8, !tbaa !20
  %10 = icmp uge i64 %6, %9
  br i1 %10, label %11, label %12

11:                                               ; preds = %1
  store i32 0, ptr %2, align 4
  br label %62

12:                                               ; preds = %1
  %13 = load ptr, ptr %3, align 8, !tbaa !4
  %14 = getelementptr inbounds nuw %struct.rlw_iterator, ptr %13, i32 0, i32 0
  %15 = load ptr, ptr %14, align 8, !tbaa !15
  %16 = load ptr, ptr %3, align 8, !tbaa !4
  %17 = getelementptr inbounds nuw %struct.rlw_iterator, ptr %16, i32 0, i32 2
  %18 = load i64, ptr %17, align 8, !tbaa !21
  %19 = getelementptr inbounds nuw i64, ptr %15, i64 %18
  %20 = load ptr, ptr %3, align 8, !tbaa !4
  %21 = getelementptr inbounds nuw %struct.rlw_iterator, ptr %20, i32 0, i32 4
  %22 = getelementptr inbounds nuw %struct.anon, ptr %21, i32 0, i32 0
  store ptr %19, ptr %22, align 8, !tbaa !24
  %23 = load ptr, ptr %3, align 8, !tbaa !4
  %24 = getelementptr inbounds nuw %struct.rlw_iterator, ptr %23, i32 0, i32 4
  %25 = getelementptr inbounds nuw %struct.anon, ptr %24, i32 0, i32 0
  %26 = load ptr, ptr %25, align 8, !tbaa !24
  %27 = call i64 @rlw_get_literal_words(ptr noundef %26)
  %28 = add i64 %27, 1
  %29 = load ptr, ptr %3, align 8, !tbaa !4
  %30 = getelementptr inbounds nuw %struct.rlw_iterator, ptr %29, i32 0, i32 2
  %31 = load i64, ptr %30, align 8, !tbaa !21
  %32 = add i64 %31, %28
  store i64 %32, ptr %30, align 8, !tbaa !21
  %33 = load ptr, ptr %3, align 8, !tbaa !4
  %34 = getelementptr inbounds nuw %struct.rlw_iterator, ptr %33, i32 0, i32 4
  %35 = getelementptr inbounds nuw %struct.anon, ptr %34, i32 0, i32 0
  %36 = load ptr, ptr %35, align 8, !tbaa !24
  %37 = call i64 @rlw_get_literal_words(ptr noundef %36)
  %38 = trunc i64 %37 to i32
  %39 = load ptr, ptr %3, align 8, !tbaa !4
  %40 = getelementptr inbounds nuw %struct.rlw_iterator, ptr %39, i32 0, i32 4
  %41 = getelementptr inbounds nuw %struct.anon, ptr %40, i32 0, i32 1
  store i32 %38, ptr %41, align 8, !tbaa !25
  %42 = load ptr, ptr %3, align 8, !tbaa !4
  %43 = getelementptr inbounds nuw %struct.rlw_iterator, ptr %42, i32 0, i32 4
  %44 = getelementptr inbounds nuw %struct.anon, ptr %43, i32 0, i32 0
  %45 = load ptr, ptr %44, align 8, !tbaa !24
  %46 = call i64 @rlw_get_running_len(ptr noundef %45)
  %47 = trunc i64 %46 to i32
  %48 = load ptr, ptr %3, align 8, !tbaa !4
  %49 = getelementptr inbounds nuw %struct.rlw_iterator, ptr %48, i32 0, i32 4
  %50 = getelementptr inbounds nuw %struct.anon, ptr %49, i32 0, i32 2
  store i32 %47, ptr %50, align 4, !tbaa !26
  %51 = load ptr, ptr %3, align 8, !tbaa !4
  %52 = getelementptr inbounds nuw %struct.rlw_iterator, ptr %51, i32 0, i32 4
  %53 = getelementptr inbounds nuw %struct.anon, ptr %52, i32 0, i32 0
  %54 = load ptr, ptr %53, align 8, !tbaa !24
  %55 = call i32 @rlw_get_run_bit(ptr noundef %54)
  %56 = load ptr, ptr %3, align 8, !tbaa !4
  %57 = getelementptr inbounds nuw %struct.rlw_iterator, ptr %56, i32 0, i32 4
  %58 = getelementptr inbounds nuw %struct.anon, ptr %57, i32 0, i32 4
  store i32 %55, ptr %58, align 4, !tbaa !27
  %59 = load ptr, ptr %3, align 8, !tbaa !4
  %60 = getelementptr inbounds nuw %struct.rlw_iterator, ptr %59, i32 0, i32 4
  %61 = getelementptr inbounds nuw %struct.anon, ptr %60, i32 0, i32 3
  store i32 0, ptr %61, align 8, !tbaa !22
  store i32 1, ptr %2, align 4
  br label %62

62:                                               ; preds = %12, %11
  %63 = load i32, ptr %2, align 4
  ret i32 %63
}

; Function Attrs: nounwind uwtable
define dso_local void @rlwit_init(ptr noundef %0, ptr noundef %1) #0 {
  %3 = alloca ptr, align 8
  %4 = alloca ptr, align 8
  store ptr %0, ptr %3, align 8, !tbaa !4
  store ptr %1, ptr %4, align 8, !tbaa !9
  %5 = load ptr, ptr %4, align 8, !tbaa !9
  %6 = getelementptr inbounds nuw %struct.ewah_bitmap, ptr %5, i32 0, i32 0
  %7 = load ptr, ptr %6, align 8, !tbaa !11
  %8 = load ptr, ptr %3, align 8, !tbaa !4
  %9 = getelementptr inbounds nuw %struct.rlw_iterator, ptr %8, i32 0, i32 0
  store ptr %7, ptr %9, align 8, !tbaa !15
  %10 = load ptr, ptr %4, align 8, !tbaa !9
  %11 = getelementptr inbounds nuw %struct.ewah_bitmap, ptr %10, i32 0, i32 1
  %12 = load i64, ptr %11, align 8, !tbaa !19
  %13 = load ptr, ptr %3, align 8, !tbaa !4
  %14 = getelementptr inbounds nuw %struct.rlw_iterator, ptr %13, i32 0, i32 1
  store i64 %12, ptr %14, align 8, !tbaa !20
  %15 = load ptr, ptr %3, align 8, !tbaa !4
  %16 = getelementptr inbounds nuw %struct.rlw_iterator, ptr %15, i32 0, i32 2
  store i64 0, ptr %16, align 8, !tbaa !21
  %17 = load ptr, ptr %3, align 8, !tbaa !4
  %18 = call i32 @next_word(ptr noundef %17)
  %19 = load ptr, ptr %3, align 8, !tbaa !4
  %20 = call i64 @rlwit_literal_words(ptr noundef %19)
  %21 = load ptr, ptr %3, align 8, !tbaa !4
  %22 = getelementptr inbounds nuw %struct.rlw_iterator, ptr %21, i32 0, i32 4
  %23 = getelementptr inbounds nuw %struct.anon, ptr %22, i32 0, i32 3
  %24 = load i32, ptr %23, align 8, !tbaa !22
  %25 = sext i32 %24 to i64
  %26 = add i64 %20, %25
  %27 = load ptr, ptr %3, align 8, !tbaa !4
  %28 = getelementptr inbounds nuw %struct.rlw_iterator, ptr %27, i32 0, i32 3
  store i64 %26, ptr %28, align 8, !tbaa !23
  ret void
}