; Function Attrs: mustprogress nofree norecurse nosync nounwind willreturn memory(read, argmem: readwrite, inaccessiblemem: none) uwtable
define dso_local void @rlwit_init(ptr noundef captures(none) initializes((0, 32)) %0, ptr noundef readonly captures(none) %1) local_unnamed_addr #0 {
  %3 = load ptr, ptr %1, align 8, !tbaa !4
  store ptr %3, ptr %0, align 8, !tbaa !11
  %4 = getelementptr inbounds nuw i8, ptr %1, i64 8
  %5 = load i64, ptr %4, align 8, !tbaa !15
  %6 = getelementptr inbounds nuw i8, ptr %0, i64 8
  store i64 %5, ptr %6, align 8, !tbaa !16
  %7 = getelementptr inbounds nuw i8, ptr %0, i64 16
  store i64 0, ptr %7, align 8, !tbaa !17
  %.not.i.not = icmp eq i64 %5, 0
  br i1 %.not.i.not, label %.next_word.exit_crit_edge, label %9

.next_word.exit_crit_edge:                        ; preds = %2
  %.phi.trans.insert = getelementptr i8, ptr %0, i64 40
  %.val9.pre = load i32, ptr %.phi.trans.insert, align 8, !tbaa !18
  %.phi.trans.insert12 = getelementptr inbounds nuw i8, ptr %0, i64 48
  %.pre = load i32, ptr %.phi.trans.insert12, align 8, !tbaa !19
  %8 = sext i32 %.pre to i64
  br label %next_word.exit

9:                                                ; preds = %2
  %10 = getelementptr inbounds nuw i8, ptr %0, i64 32
  store ptr %3, ptr %10, align 8, !tbaa !20
  %.val.i = load i64, ptr %3, align 8, !tbaa !21
  %11 = lshr i64 %.val.i, 33
  %12 = add nuw nsw i64 %11, 1
  store i64 %12, ptr %7, align 8, !tbaa !17
  %.val15.i = load i64, ptr %3, align 8, !tbaa !21
  %13 = lshr i64 %.val15.i, 33
  %14 = trunc nuw nsw i64 %13 to i32
  %15 = getelementptr inbounds nuw i8, ptr %0, i64 40
  store i32 %14, ptr %15, align 8, !tbaa !18
  %16 = lshr i64 %.val15.i, 1
  %17 = trunc i64 %16 to i32
  %18 = getelementptr inbounds nuw i8, ptr %0, i64 44
  store i32 %17, ptr %18, align 4, !tbaa !22
  %19 = trunc i64 %.val15.i to i32
  %20 = and i32 %19, 1
  %21 = getelementptr inbounds nuw i8, ptr %0, i64 52
  store i32 %20, ptr %21, align 4, !tbaa !23
  %22 = getelementptr inbounds nuw i8, ptr %0, i64 48
  store i32 0, ptr %22, align 8, !tbaa !19
  br label %next_word.exit

next_word.exit:                                   ; preds = %.next_word.exit_crit_edge, %9
  %23 = phi i64 [ %8, %.next_word.exit_crit_edge ], [ 0, %9 ]
  %.val9 = phi i32 [ %.val9.pre, %.next_word.exit_crit_edge ], [ %14, %9 ]
  %.val = phi i64 [ 0, %.next_word.exit_crit_edge ], [ %12, %9 ]
  %24 = sext i32 %.val9 to i64
  %25 = sub nsw i64 %.val, %24
  %26 = add nsw i64 %25, %23
  %27 = getelementptr inbounds nuw i8, ptr %0, i64 24
  store i64 %26, ptr %27, align 8, !tbaa !24
  ret void
}